(lp0
(dp1
Vdomain
p2
V.instagram.com
p3
sVsecure
p4
I01
sVvalue
p5
VXPOqdAALAAE3eIu5LBqm1a-k2zmk
p6
sVexpiry
p7
F1874832755.885737
sVpath
p8
V/
p9
sVhttpOnly
p10
I00
sVname
p11
Vmid
p12
sa(dp13
Vdomain
p14
Vwww.instagram.com
p15
sVsecure
p16
I00
sVvalue
p17
V1
p18
sVexpiry
p19
L4715167954L
sVpath
p20
g9
sVhttpOnly
p21
I00
sVname
p22
Vig_cb
p23
sa(dp24
Vdomain
p25
V.instagram.com
p26
sVname
p27
Vurlgen
p28
sVvalue
p29
V"{\u005c"94.66.59.61\u005c": 6799}:1hXO6U:L6BBrc6BTkNCPD-WDYX6LRenJB4"
p30
sVpath
p31
g9
sVhttpOnly
p32
I01
sVsecure
p33
I01
sa(dp34
Vdomain
p35
V.instagram.com
p36
sVsecure
p37
I01
sVvalue
p38
VDy3KfZbKxaglcVYkyjtTJCNRFIOFaRwv
p39
sVexpiry
p40
F1590922360.418796
sVpath
p41
g9
sVhttpOnly
p42
I00
sVname
p43
Vcsrftoken
p44
sa(dp45
Vdomain
p46
V.instagram.com
p47
sVsecure
p48
I01
sVvalue
p49
V14079960648%3Aupo1WsSzzpKyvJ%3A16
p50
sVexpiry
p51
F1591008755.885767
sVpath
p52
g9
sVhttpOnly
p53
I01
sVname
p54
Vsessionid
p55
sa(dp56
Vdomain
p57
V.instagram.com
p58
sVsecure
p59
I01
sVvalue
p60
V14079960648
p61
sVexpiry
p62
F1567248760.418763
sVpath
p63
g9
sVhttpOnly
p64
I00
sVname
p65
Vds_user_id
p66
sa(dp67
Vdomain
p68
V.instagram.com
p69
sVname
p70
Vrur
p71
sVvalue
p72
VPRN
p73
sVpath
p74
g9
sVhttpOnly
p75
I01
sVsecure
p76
I01
sa.